target datalayout = "e-m:e-p270:32:32-p271:32:32-p272:64:64-i64:64-i128:128-f80:128-n8:16:32:64-S128"
target triple = "x86_64-pc-linux-gnu"

; Function Attrs: nounwind uwtable
define internal i32 @test_init_in_background_thread() #0 {
  %1 = alloca i32, align 4
  %2 = alloca i64, align 8
  %3 = alloca i64, align 8
  %4 = alloca i32, align 4
  call void @llvm.lifetime.start.p0(i64 8, ptr %2) #11
  call void @llvm.lifetime.start.p0(i64 8, ptr %3) #11
  %5 = call i32 @PyThread_start_joinable_thread(ptr noundef @do_init, ptr noundef null, ptr noundef %3, ptr noundef %2)
  %6 = icmp slt i32 %5, 0
  br i1 %6, label %7, label %8

7:                                                ; preds = %0
  store i32 -1, ptr %1, align 4
  store i32 1, ptr %4, align 4
  br label %11

8:                                                ; preds = %0
  %9 = load i64, ptr %2, align 8, !tbaa !37
  %10 = call i32 @PyThread_join_thread(i64 noundef %9)
  store i32 %10, ptr %1, align 4
  store i32 1, ptr %4, align 4
  br label %11

11:                                               ; preds = %8, %7
  call void @llvm.lifetime.end.p0(i64 8, ptr %3) #11
  call void @llvm.lifetime.end.p0(i64 8, ptr %2) #11
  %12 = load i32, ptr %1, align 4
  ret i32 %12
}