; Function Attrs: nounwind uwtable
define internal i32 @test_init_in_background_thread() #0 {
  %1 = alloca i64, align 8
  %2 = alloca i64, align 8
  call void @llvm.lifetime.start.p0(i64 8, ptr nonnull %1) #20
  call void @llvm.lifetime.start.p0(i64 8, ptr nonnull %2) #20
  %3 = call i32 @PyThread_start_joinable_thread(ptr noundef nonnull @do_init, ptr noundef null, ptr noundef nonnull %2, ptr noundef nonnull %1) #20
  %4 = icmp slt i32 %3, 0
  br i1 %4, label %8, label %5

5:                                                ; preds = %0
  %6 = load i64, ptr %1, align 8, !tbaa !78
  %7 = call i32 @PyThread_join_thread(i64 noundef %6) #20
  br label %8

8:                                                ; preds = %0, %5
  %.0 = phi i32 [ %7, %5 ], [ -1, %0 ]
  call void @llvm.lifetime.end.p0(i64 8, ptr nonnull %2) #20
  call void @llvm.lifetime.end.p0(i64 8, ptr nonnull %1) #20
  ret i32 %.0
}